; Function Attrs: mustprogress uwtable
define noundef zeroext i1 @_ZNK6casadi17GetNonzerosVector8is_equalEPKNS_6MXNodeEx(ptr noundef nonnull align 8 dereferenceable(88) %0, ptr noundef %1, i64 noundef %2) unnamed_addr #3 align 2 {
  %4 = tail call noundef zeroext i1 @_ZNK6casadi6MXNode13sameOpAndDepsEPKS0_x(ptr noundef nonnull align 8 dereferenceable(64) %0, ptr noundef %1, i64 noundef %2)
  %5 = icmp ne ptr %1, null
  %or.cond.not = and i1 %5, %4
  br i1 %or.cond.not, label %6, label %_ZSt5equalIN9__gnu_cxx17__normal_iteratorIPKxSt6vectorIxSaIxEEEES7_EbT_S8_T0_.exit

6:                                                ; preds = %3
  %7 = tail call ptr @__dynamic_cast(ptr nonnull %1, ptr nonnull @_ZTIN6casadi6MXNodeE, ptr nonnull @_ZTIN6casadi17GetNonzerosVectorE, i64 0) #22
  %8 = icmp eq ptr %7, null
  br i1 %8, label %_ZSt5equalIN9__gnu_cxx17__normal_iteratorIPKxSt6vectorIxSaIxEEEES7_EbT_S8_T0_.exit, label %9

9:                                                ; preds = %6
  %10 = getelementptr inbounds i8, ptr %0, i64 56
  %11 = getelementptr inbounds i8, ptr %1, i64 56
  %12 = tail call noundef zeroext i1 @_ZNK6casadi8Sparsity8is_equalERKS0_(ptr noundef nonnull align 8 dereferenceable(8) %10, ptr noundef nonnull align 8 dereferenceable(8) %11)
  br i1 %12, label %13, label %_ZSt5equalIN9__gnu_cxx17__normal_iteratorIPKxSt6vectorIxSaIxEEEES7_EbT_S8_T0_.exit

13:                                               ; preds = %9
  %14 = getelementptr inbounds i8, ptr %0, i64 64
  %15 = getelementptr inbounds i8, ptr %0, i64 72
  %16 = load ptr, ptr %15, align 8
  %17 = load ptr, ptr %14, align 8
  %18 = ptrtoint ptr %16 to i64
  %19 = ptrtoint ptr %17 to i64
  %20 = sub i64 %18, %19
  %21 = getelementptr inbounds i8, ptr %7, i64 64
  %22 = getelementptr inbounds i8, ptr %7, i64 72
  %23 = load ptr, ptr %22, align 8
  %24 = load ptr, ptr %21, align 8
  %25 = ptrtoint ptr %23 to i64
  %26 = ptrtoint ptr %24 to i64
  %27 = sub i64 %25, %26
  %.not = icmp eq i64 %20, %27
  br i1 %.not, label %28, label %_ZSt5equalIN9__gnu_cxx17__normal_iteratorIPKxSt6vectorIxSaIxEEEES7_EbT_S8_T0_.exit

28:                                               ; preds = %13
  %.not.i.i.i.i = icmp eq ptr %16, %17
  br i1 %.not.i.i.i.i, label %_ZSt5equalIN9__gnu_cxx17__normal_iteratorIPKxSt6vectorIxSaIxEEEES7_EbT_S8_T0_.exit, label %29

29:                                               ; preds = %28
  %bcmp.i.i.i.i = tail call i32 @bcmp(ptr %17, ptr %24, i64 %20)
  %.not7.i.i.i.i = icmp eq i32 %bcmp.i.i.i.i, 0
  br label %_ZSt5equalIN9__gnu_cxx17__normal_iteratorIPKxSt6vectorIxSaIxEEEES7_EbT_S8_T0_.exit

_ZSt5equalIN9__gnu_cxx17__normal_iteratorIPKxSt6vectorIxSaIxEEEES7_EbT_S8_T0_.exit: ; preds = %29, %28, %13, %9, %6, %3
  %.0 = phi i1 [ false, %3 ], [ false, %6 ], [ false, %9 ], [ false, %13 ], [ %.not7.i.i.i.i, %29 ], [ true, %28 ]
  ret i1 %.0
}